target datalayout = "e-m:e-p270:32:32-p271:32:32-p272:64:64-i64:64-i128:128-f80:128-n8:16:32:64-S128"
target triple = "x86_64-pc-linux-gnu"

%struct.AVFilterLink = type { ptr, ptr, ptr, ptr, i32, i32, i32, i32, %struct.AVRational, i32, i32, i32, %struct.AVChannelLayout, %struct.AVRational, ptr, i32, %struct.AVFilterFormatsConfig, %struct.AVFilterFormatsConfig }
%struct.AVChannelLayout = type { i32, i32, %union.anon, ptr }
%union.anon = type { i64 }
%struct.AVRational = type { i32, i32 }
%struct.AVFilterFormatsConfig = type { ptr, ptr, ptr, ptr, ptr }
%struct.AVFilterContext = type { ptr, ptr, ptr, ptr, ptr, i32, ptr, ptr, i32, ptr, ptr, i32, i32, ptr, ptr, ptr, ptr, i32, ptr, i32, i32 }
%struct.YADIFContext = type { ptr, i32, i32, i32, i32, ptr, ptr, ptr, ptr, ptr, ptr, ptr, ptr, i32, ptr, i32, %struct.CCFifo, i32, i32 }
%struct.CCFifo = type { ptr, ptr, %struct.AVRational, i32, i32, i32, i32, i32, ptr }
%struct.FilterLink = type { %struct.AVFilterLink, ptr, i64, i64, i32, i32, i64, i64, i64, i64, %struct.AVRational, ptr }

@.str.5 = private unnamed_addr constant [34 x i8] c"Cannot use exact output timebase\0A\00", align 1
@.str.6 = private unnamed_addr constant [56 x i8] c"Video of less than 3 columns or lines is not supported\0A\00", align 1
@.str.7 = private unnamed_addr constant [32 x i8] c"Failure to setup CC FIFO queue\0A\00", align 1

; Function Attrs: inlinehint nounwind uwtable
define internal ptr @ff_filter_link(ptr noundef %0) #4 {
  %2 = alloca ptr, align 8
  store ptr %0, ptr %2, align 8, !tbaa !4
  %3 = load ptr, ptr %2, align 8, !tbaa !4
  ret ptr %3
}

; Function Attrs: nounwind uwtable
define i32 @ff_yadif_config_output_common(ptr noundef %0) #0 {
  %2 = alloca i32, align 4
  %3 = alloca ptr, align 8
  %4 = alloca ptr, align 8
  %5 = alloca ptr, align 8
  %6 = alloca ptr, align 8
  %7 = alloca ptr, align 8
  %8 = alloca %struct.AVRational, align 4
  %9 = alloca i32, align 4
  %10 = alloca i32, align 4
  %11 = alloca %struct.AVRational, align 4
  %12 = alloca %struct.AVRational, align 4
  store ptr %0, ptr %3, align 8, !tbaa !4
  call void @llvm.lifetime.start.p0(i64 8, ptr %4) #7
  %13 = load ptr, ptr %3, align 8, !tbaa !4
  %14 = getelementptr inbounds nuw %struct.AVFilterLink, ptr %13, i32 0, i32 0
  %15 = load ptr, ptr %14, align 8, !tbaa !74
  store ptr %15, ptr %4, align 8, !tbaa !23
  call void @llvm.lifetime.start.p0(i64 8, ptr %5) #7
  %16 = load ptr, ptr %4, align 8, !tbaa !23
  %17 = getelementptr inbounds nuw %struct.AVFilterContext, ptr %16, i32 0, i32 4
  %18 = load ptr, ptr %17, align 8, !tbaa !76
  %19 = getelementptr inbounds ptr, ptr %18, i64 0
  %20 = load ptr, ptr %19, align 8, !tbaa !4
  %21 = call ptr @ff_filter_link(ptr noundef %20)
  store ptr %21, ptr %5, align 8, !tbaa !77
  call void @llvm.lifetime.start.p0(i64 8, ptr %6) #7
  %22 = load ptr, ptr %3, align 8, !tbaa !4
  %23 = call ptr @ff_filter_link(ptr noundef %22)
  store ptr %23, ptr %6, align 8, !tbaa !77
  call void @llvm.lifetime.start.p0(i64 8, ptr %7) #7
  %24 = load ptr, ptr %4, align 8, !tbaa !23
  %25 = getelementptr inbounds nuw %struct.AVFilterContext, ptr %24, i32 0, i32 9
  %26 = load ptr, ptr %25, align 8, !tbaa !24
  store ptr %26, ptr %7, align 8, !tbaa !34
  call void @llvm.lifetime.start.p0(i64 8, ptr %8) #7
  %27 = load ptr, ptr %4, align 8, !tbaa !23
  %28 = getelementptr inbounds nuw %struct.AVFilterContext, ptr %27, i32 0, i32 4
  %29 = load ptr, ptr %28, align 8, !tbaa !76
  %30 = getelementptr inbounds ptr, ptr %29, i64 0
  %31 = load ptr, ptr %30, align 8, !tbaa !4
  %32 = getelementptr inbounds nuw %struct.AVFilterLink, ptr %31, i32 0, i32 13
  call void @llvm.memcpy.p0.p0.i64(ptr align 4 %8, ptr align 8 %32, i64 8, i1 false), !tbaa.struct !79
  call void @llvm.lifetime.start.p0(i64 4, ptr %9) #7
  %33 = load ptr, ptr %3, align 8, !tbaa !4
  %34 = getelementptr inbounds nuw %struct.AVFilterLink, ptr %33, i32 0, i32 13
  %35 = getelementptr inbounds nuw %struct.AVRational, ptr %34, i32 0, i32 0
  %36 = load ptr, ptr %3, align 8, !tbaa !4
  %37 = getelementptr inbounds nuw %struct.AVFilterLink, ptr %36, i32 0, i32 13
  %38 = getelementptr inbounds nuw %struct.AVRational, ptr %37, i32 0, i32 1
  %39 = getelementptr inbounds nuw %struct.AVRational, ptr %8, i32 0, i32 0
  %40 = load i32, ptr %39, align 4, !tbaa !80
  %41 = sext i32 %40 to i64
  %42 = getelementptr inbounds nuw %struct.AVRational, ptr %8, i32 0, i32 1
  %43 = load i32, ptr %42, align 4, !tbaa !81
  %44 = sext i32 %43 to i64
  %45 = mul nsw i64 %44, 2
  %46 = call i32 @av_reduce(ptr noundef %35, ptr noundef %38, i64 noundef %41, i64 noundef %45, i64 noundef 2147483647)
  %47 = icmp ne i32 %46, 0
  br i1 %47, label %48, label %51

48:                                               ; preds = %1
  %49 = load ptr, ptr %7, align 8, !tbaa !34
  %50 = getelementptr inbounds nuw %struct.YADIFContext, ptr %49, i32 0, i32 18
  store i32 2, ptr %50, align 4, !tbaa !56
  br label %57

51:                                               ; preds = %1
  %52 = load ptr, ptr %4, align 8, !tbaa !23
  call void (ptr, i32, ptr, ...) @av_log(ptr noundef %52, i32 noundef 24, ptr noundef @.str.5)
  %53 = load ptr, ptr %3, align 8, !tbaa !4
  %54 = getelementptr inbounds nuw %struct.AVFilterLink, ptr %53, i32 0, i32 13
  call void @llvm.memcpy.p0.p0.i64(ptr align 8 %54, ptr align 4 %8, i64 8, i1 false), !tbaa.struct !79
  %55 = load ptr, ptr %7, align 8, !tbaa !34
  %56 = getelementptr inbounds nuw %struct.YADIFContext, ptr %55, i32 0, i32 18
  store i32 1, ptr %56, align 4, !tbaa !56
  br label %57

57:                                               ; preds = %51, %48
  %58 = load ptr, ptr %4, align 8, !tbaa !23
  %59 = getelementptr inbounds nuw %struct.AVFilterContext, ptr %58, i32 0, i32 4
  %60 = load ptr, ptr %59, align 8, !tbaa !76
  %61 = getelementptr inbounds ptr, ptr %60, i64 0
  %62 = load ptr, ptr %61, align 8, !tbaa !4
  %63 = getelementptr inbounds nuw %struct.AVFilterLink, ptr %62, i32 0, i32 6
  %64 = load i32, ptr %63, align 8, !tbaa !59
  %65 = load ptr, ptr %3, align 8, !tbaa !4
  %66 = getelementptr inbounds nuw %struct.AVFilterLink, ptr %65, i32 0, i32 6
  store i32 %64, ptr %66, align 8, !tbaa !59
  %67 = load ptr, ptr %4, align 8, !tbaa !23
  %68 = getelementptr inbounds nuw %struct.AVFilterContext, ptr %67, i32 0, i32 4
  %69 = load ptr, ptr %68, align 8, !tbaa !76
  %70 = getelementptr inbounds ptr, ptr %69, i64 0
  %71 = load ptr, ptr %70, align 8, !tbaa !4
  %72 = getelementptr inbounds nuw %struct.AVFilterLink, ptr %71, i32 0, i32 7
  %73 = load i32, ptr %72, align 4, !tbaa !60
  %74 = load ptr, ptr %3, align 8, !tbaa !4
  %75 = getelementptr inbounds nuw %struct.AVFilterLink, ptr %74, i32 0, i32 7
  store i32 %73, ptr %75, align 4, !tbaa !60
  %76 = load ptr, ptr %3, align 8, !tbaa !4
  %77 = getelementptr inbounds nuw %struct.AVFilterLink, ptr %76, i32 0, i32 6
  %78 = load i32, ptr %77, align 8, !tbaa !59
  %79 = icmp slt i32 %78, 3
  br i1 %79, label %85, label %80

80:                                               ; preds = %57
  %81 = load ptr, ptr %3, align 8, !tbaa !4
  %82 = getelementptr inbounds nuw %struct.AVFilterLink, ptr %81, i32 0, i32 7
  %83 = load i32, ptr %82, align 4, !tbaa !60
  %84 = icmp slt i32 %83, 3
  br i1 %84, label %85, label %87

85:                                               ; preds = %80, %57
  %86 = load ptr, ptr %4, align 8, !tbaa !23
  call void (ptr, i32, ptr, ...) @av_log(ptr noundef %86, i32 noundef 16, ptr noundef @.str.6)
  store i32 -22, ptr %2, align 4
  store i32 1, ptr %10, align 4
  br label %122

87:                                               ; preds = %80
  %88 = load ptr, ptr %7, align 8, !tbaa !34
  %89 = getelementptr inbounds nuw %struct.YADIFContext, ptr %88, i32 0, i32 1
  %90 = load i32, ptr %89, align 8, !tbaa !61
  %91 = and i32 %90, 1
  %92 = icmp ne i32 %91, 0
  br i1 %92, label %93, label %103

93:                                               ; preds = %87
  %94 = load ptr, ptr %6, align 8, !tbaa !77
  %95 = getelementptr inbounds nuw %struct.FilterLink, ptr %94, i32 0, i32 10
  call void @llvm.lifetime.start.p0(i64 8, ptr %11) #7
  %96 = load ptr, ptr %5, align 8, !tbaa !77
  %97 = getelementptr inbounds nuw %struct.FilterLink, ptr %96, i32 0, i32 10
  %98 = getelementptr inbounds nuw %struct.AVRational, ptr %12, i32 0, i32 0
  store i32 2, ptr %98, align 4, !tbaa !80
  %99 = getelementptr inbounds nuw %struct.AVRational, ptr %12, i32 0, i32 1
  store i32 1, ptr %99, align 4, !tbaa !81
  %100 = load i64, ptr %97, align 8
  %101 = load i64, ptr %12, align 4
  %102 = call i64 @av_mul_q(i64 %100, i64 %101) #9
  store i64 %102, ptr %11, align 4
  call void @llvm.memcpy.p0.p0.i64(ptr align 8 %95, ptr align 4 %11, i64 8, i1 false), !tbaa.struct !79
  call void @llvm.lifetime.end.p0(i64 8, ptr %11) #7
  br label %108

103:                                              ; preds = %87
  %104 = load ptr, ptr %6, align 8, !tbaa !77
  %105 = getelementptr inbounds nuw %struct.FilterLink, ptr %104, i32 0, i32 10
  %106 = load ptr, ptr %5, align 8, !tbaa !77
  %107 = getelementptr inbounds nuw %struct.FilterLink, ptr %106, i32 0, i32 10
  call void @llvm.memcpy.p0.p0.i64(ptr align 8 %105, ptr align 8 %107, i64 8, i1 false), !tbaa.struct !79
  br label %108

108:                                              ; preds = %103, %93
  %109 = load ptr, ptr %7, align 8, !tbaa !34
  %110 = getelementptr inbounds nuw %struct.YADIFContext, ptr %109, i32 0, i32 16
  %111 = load ptr, ptr %6, align 8, !tbaa !77
  %112 = getelementptr inbounds nuw %struct.FilterLink, ptr %111, i32 0, i32 10
  %113 = load ptr, ptr %4, align 8, !tbaa !23
  %114 = load i64, ptr %112, align 8
  %115 = call i32 @ff_ccfifo_init(ptr noundef %110, i64 %114, ptr noundef %113)
  store i32 %115, ptr %9, align 4, !tbaa !62
  %116 = load i32, ptr %9, align 4, !tbaa !62
  %117 = icmp slt i32 %116, 0
  br i1 %117, label %118, label %121

118:                                              ; preds = %108
  %119 = load ptr, ptr %4, align 8, !tbaa !23
  call void (ptr, i32, ptr, ...) @av_log(ptr noundef %119, i32 noundef 16, ptr noundef @.str.7)
  %120 = load i32, ptr %9, align 4, !tbaa !62
  store i32 %120, ptr %2, align 4
  store i32 1, ptr %10, align 4
  br label %122

121:                                              ; preds = %108
  store i32 0, ptr %2, align 4
  store i32 1, ptr %10, align 4
  br label %122

122:                                              ; preds = %121, %118, %85
  call void @llvm.lifetime.end.p0(i64 4, ptr %9) #7
  call void @llvm.lifetime.end.p0(i64 8, ptr %8) #7
  call void @llvm.lifetime.end.p0(i64 8, ptr %7) #7
  call void @llvm.lifetime.end.p0(i64 8, ptr %6) #7
  call void @llvm.lifetime.end.p0(i64 8, ptr %5) #7
  call void @llvm.lifetime.end.p0(i64 8, ptr %4) #7
  %123 = load i32, ptr %2, align 4
  ret i32 %123
}