; Function Attrs: nounwind uwtable
define range(i32 -2147483648, 1) i32 @ff_yadif_config_output_common(ptr noundef %0) local_unnamed_addr #0 {
  %2 = load ptr, ptr %0, align 8, !tbaa !70
  %3 = getelementptr inbounds nuw i8, ptr %2, i64 32
  %4 = load ptr, ptr %3, align 8, !tbaa !72
  %5 = load ptr, ptr %4, align 8, !tbaa !59
  %6 = getelementptr inbounds nuw i8, ptr %2, i64 72
  %7 = load ptr, ptr %6, align 8, !tbaa !19
  %8 = getelementptr inbounds nuw i8, ptr %5, i64 96
  %.sroa.03.0.copyload = load i32, ptr %8, align 8, !tbaa !45
  %.sroa.5.0..sroa_idx = getelementptr inbounds nuw i8, ptr %5, i64 100
  %.sroa.5.0.copyload = load i32, ptr %.sroa.5.0..sroa_idx, align 4, !tbaa !45
  %9 = getelementptr inbounds nuw i8, ptr %0, i64 96
  %10 = getelementptr inbounds nuw i8, ptr %0, i64 100
  %11 = sext i32 %.sroa.03.0.copyload to i64
  %12 = sext i32 %.sroa.5.0.copyload to i64
  %13 = shl nsw i64 %12, 1
  %14 = tail call i32 @av_reduce(ptr noundef nonnull %9, ptr noundef nonnull %10, i64 noundef %11, i64 noundef %13, i64 noundef 2147483647) #5
  %.not = icmp eq i32 %14, 0
  br i1 %.not, label %15, label %16

15:                                               ; preds = %1
  tail call void (ptr, i32, ptr, ...) @av_log(ptr noundef nonnull %2, i32 noundef 24, ptr noundef nonnull @.str.5) #5
  store i32 %.sroa.03.0.copyload, ptr %9, align 8, !tbaa !45
  store i32 %.sroa.5.0.copyload, ptr %10, align 4, !tbaa !45
  br label %16

16:                                               ; preds = %1, %15
  %.sink = phi i32 [ 1, %15 ], [ 2, %1 ]
  %17 = getelementptr inbounds nuw i8, ptr %7, i64 172
  store i32 %.sink, ptr %17, align 4, !tbaa !56
  %18 = load ptr, ptr %3, align 8, !tbaa !72
  %19 = load ptr, ptr %18, align 8, !tbaa !59
  %20 = getelementptr inbounds nuw i8, ptr %19, i64 40
  %21 = load i32, ptr %20, align 8, !tbaa !61
  %22 = getelementptr inbounds nuw i8, ptr %0, i64 40
  store i32 %21, ptr %22, align 8, !tbaa !61
  %23 = getelementptr inbounds nuw i8, ptr %19, i64 44
  %24 = load i32, ptr %23, align 4, !tbaa !62
  %25 = getelementptr inbounds nuw i8, ptr %0, i64 44
  store i32 %24, ptr %25, align 4, !tbaa !62
  %26 = icmp slt i32 %21, 3
  %27 = icmp slt i32 %24, 3
  %or.cond = select i1 %26, i1 true, i1 %27
  br i1 %or.cond, label %.sink.split, label %28

28:                                               ; preds = %16
  %29 = getelementptr inbounds nuw i8, ptr %7, i64 8
  %30 = load i32, ptr %29, align 8, !tbaa !63
  %31 = and i32 %30, 1
  %.not35 = icmp eq i32 %31, 0
  %32 = getelementptr inbounds nuw i8, ptr %5, i64 264
  %33 = load i64, ptr %32, align 8
  br i1 %.not35, label %36, label %34

34:                                               ; preds = %28
  %35 = tail call i64 @av_mul_q(i64 %33, i64 4294967298) #7
  br label %36

36:                                               ; preds = %28, %34
  %.sink36 = phi i64 [ %35, %34 ], [ %33, %28 ]
  %37 = getelementptr inbounds nuw i8, ptr %0, i64 264
  store i64 %.sink36, ptr %37, align 8
  %38 = getelementptr inbounds nuw i8, ptr %7, i64 112
  %39 = tail call i32 @ff_ccfifo_init(ptr noundef nonnull %38, i64 %.sink36, ptr noundef nonnull %2) #5
  %40 = icmp slt i32 %39, 0
  br i1 %40, label %.sink.split, label %41

.sink.split:                                      ; preds = %36, %16
  %.str.7.sink = phi ptr [ @.str.6, %16 ], [ @.str.7, %36 ]
  %.0.ph = phi i32 [ -22, %16 ], [ %39, %36 ]
  tail call void (ptr, i32, ptr, ...) @av_log(ptr noundef nonnull %2, i32 noundef 16, ptr noundef nonnull %.str.7.sink) #5
  br label %41

41:                                               ; preds = %.sink.split, %36
  %.0 = phi i32 [ 0, %36 ], [ %.0.ph, %.sink.split ]
  ret i32 %.0
}